target datalayout = "e-m:e-p270:32:32-p271:32:32-p272:64:64-i64:64-i128:128-f80:128-n8:16:32:64-S128"
target triple = "x86_64-pc-linux-gnu"

@H5G_init_g = external global i8, align 1
@H5_libterm_g = external global i8, align 1
@.str.2 = private unnamed_addr constant [99 x i8] c"generated/home/dtcxzyw/WorkSpace/Projects/compilers/llvm-opt-benchmark/bench/hdf5/hdf5/src/H5Goh.c\00", align 1
@__func__.H5O__group_isa = private unnamed_addr constant [15 x i8] c"H5O__group_isa\00", align 1
@H5E_SYM_g = external global i64, align 8
@H5E_NOTFOUND_g = external global i64, align 8
@.str.4 = private unnamed_addr constant [29 x i8] c"unable to read object header\00", align 1

; Function Attrs: nounwind uwtable
define internal i32 @H5O__group_isa(ptr noundef %0) #0 {
  %2 = alloca ptr, align 8
  %3 = alloca i32, align 4
  %4 = alloca i32, align 4
  %5 = alloca i32, align 4
  %6 = alloca i8, align 1
  store ptr %0, ptr %2, align 8, !tbaa !20
  call void @llvm.lifetime.start.p0(i64 4, ptr %3) #4
  call void @llvm.lifetime.start.p0(i64 4, ptr %4) #4
  call void @llvm.lifetime.start.p0(i64 4, ptr %5) #4
  store i32 -1, ptr %5, align 4, !tbaa !22
  call void @llvm.lifetime.start.p0(i64 1, ptr %6) #4
  store i8 0, ptr %6, align 1, !tbaa !7
  %7 = load i8, ptr @H5G_init_g, align 1, !tbaa !7, !range !9, !noundef !10
  %8 = trunc i8 %7 to i1
  br i1 %8, label %13, label %9

9:                                                ; preds = %1
  %10 = load i8, ptr @H5_libterm_g, align 1, !tbaa !7, !range !9, !noundef !10
  %11 = trunc i8 %10 to i1
  %12 = xor i1 %11, true
  br label %13

13:                                               ; preds = %9, %1
  %14 = phi i1 [ true, %1 ], [ %12, %9 ]
  %15 = xor i1 %14, true
  %16 = xor i1 %15, true
  %17 = zext i1 %16 to i32
  %18 = sext i32 %17 to i64
  %19 = call i64 @llvm.expect.i64(i64 %18, i64 1)
  %20 = icmp ne i64 %19, 0
  br i1 %20, label %21, label %77

21:                                               ; preds = %13
  %22 = load ptr, ptr %2, align 8, !tbaa !20
  %23 = call i32 @H5O_msg_exists_oh(ptr noundef %22, i32 noundef 17)
  store i32 %23, ptr %3, align 4, !tbaa !22
  %24 = icmp slt i32 %23, 0
  br i1 %24, label %25, label %44

25:                                               ; preds = %21
  br label %26

26:                                               ; preds = %25
  br label %27

27:                                               ; preds = %26
  br label %28

28:                                               ; preds = %27
  %29 = load i64, ptr @H5E_SYM_g, align 8, !tbaa !11
  %30 = load i64, ptr @H5E_NOTFOUND_g, align 8, !tbaa !11
  %31 = call i32 (ptr, ptr, i32, i64, i64, ptr, ...) @H5E_printf_stack(ptr noundef @.str.2, ptr noundef @__func__.H5O__group_isa, i32 noundef 165, i64 noundef %29, i64 noundef %30, ptr noundef @.str.4)
  br label %32

32:                                               ; preds = %28
  br label %33

33:                                               ; preds = %32
  store i8 1, ptr %6, align 1, !tbaa !7
  %34 = load i8, ptr %6, align 1, !tbaa !7, !range !9, !noundef !10
  %35 = trunc i8 %34 to i1
  %36 = zext i1 %35 to i8
  store i8 %36, ptr %6, align 1, !tbaa !7
  br label %37

37:                                               ; preds = %33
  br label %38

38:                                               ; preds = %37
  br label %39

39:                                               ; preds = %38
  store i32 -1, ptr %5, align 4, !tbaa !22
  br label %76

40:                                               ; No predecessors!
  br label %41

41:                                               ; preds = %40
  br label %42

42:                                               ; preds = %41
  br label %43

43:                                               ; preds = %42
  br label %44

44:                                               ; preds = %43, %21
  %45 = load ptr, ptr %2, align 8, !tbaa !20
  %46 = call i32 @H5O_msg_exists_oh(ptr noundef %45, i32 noundef 2)
  store i32 %46, ptr %4, align 4, !tbaa !22
  %47 = icmp slt i32 %46, 0
  br i1 %47, label %48, label %67

48:                                               ; preds = %44
  br label %49

49:                                               ; preds = %48
  br label %50

50:                                               ; preds = %49
  br label %51

51:                                               ; preds = %50
  %52 = load i64, ptr @H5E_SYM_g, align 8, !tbaa !11
  %53 = load i64, ptr @H5E_NOTFOUND_g, align 8, !tbaa !11
  %54 = call i32 (ptr, ptr, i32, i64, i64, ptr, ...) @H5E_printf_stack(ptr noundef @.str.2, ptr noundef @__func__.H5O__group_isa, i32 noundef 167, i64 noundef %52, i64 noundef %53, ptr noundef @.str.4)
  br label %55

55:                                               ; preds = %51
  br label %56

56:                                               ; preds = %55
  store i8 1, ptr %6, align 1, !tbaa !7
  %57 = load i8, ptr %6, align 1, !tbaa !7, !range !9, !noundef !10
  %58 = trunc i8 %57 to i1
  %59 = zext i1 %58 to i8
  store i8 %59, ptr %6, align 1, !tbaa !7
  br label %60

60:                                               ; preds = %56
  br label %61

61:                                               ; preds = %60
  br label %62

62:                                               ; preds = %61
  store i32 -1, ptr %5, align 4, !tbaa !22
  br label %76

63:                                               ; No predecessors!
  br label %64

64:                                               ; preds = %63
  br label %65

65:                                               ; preds = %64
  br label %66

66:                                               ; preds = %65
  br label %67

67:                                               ; preds = %66, %44
  %68 = load i32, ptr %3, align 4, !tbaa !22
  %69 = icmp sgt i32 %68, 0
  br i1 %69, label %73, label %70

70:                                               ; preds = %67
  %71 = load i32, ptr %4, align 4, !tbaa !22
  %72 = icmp sgt i32 %71, 0
  br label %73

73:                                               ; preds = %70, %67
  %74 = phi i1 [ true, %67 ], [ %72, %70 ]
  %75 = zext i1 %74 to i32
  store i32 %75, ptr %5, align 4, !tbaa !22
  br label %76

76:                                               ; preds = %73, %62, %39
  br label %77

77:                                               ; preds = %76, %13
  %78 = load i32, ptr %5, align 4, !tbaa !22
  call void @llvm.lifetime.end.p0(i64 1, ptr %6) #4
  call void @llvm.lifetime.end.p0(i64 4, ptr %5) #4
  call void @llvm.lifetime.end.p0(i64 4, ptr %4) #4
  call void @llvm.lifetime.end.p0(i64 4, ptr %3) #4
  ret i32 %78
}