; Function Attrs: nounwind uwtable
define internal range(i32 -1, 2) i32 @H5O__group_isa(ptr noundef %0) #0 {
  %2 = load i8, ptr @H5G_init_g, align 1, !tbaa !3, !range !7, !noundef !8
  %3 = trunc nuw i8 %2 to i1
  %4 = load i8, ptr @H5_libterm_g, align 1, !range !7
  %5 = trunc nuw i8 %4 to i1
  %6 = xor i1 %5, true
  %7 = select i1 %3, i1 true, i1 %6
  br i1 %7, label %8, label %26, !prof !9

8:                                                ; preds = %1
  %9 = tail call i32 @H5O_msg_exists_oh(ptr noundef %0, i32 noundef 17) #3
  %10 = icmp slt i32 %9, 0
  br i1 %10, label %11, label %15

11:                                               ; preds = %8
  %12 = load i64, ptr @H5E_SYM_g, align 8, !tbaa !10
  %13 = load i64, ptr @H5E_NOTFOUND_g, align 8, !tbaa !10
  %14 = tail call i32 (ptr, ptr, i32, i64, i64, ptr, ...) @H5E_printf_stack(ptr noundef nonnull @.str.2, ptr noundef nonnull @__func__.H5O__group_isa, i32 noundef 165, i64 noundef %12, i64 noundef %13, ptr noundef nonnull @.str.4) #3
  br label %26

15:                                               ; preds = %8
  %16 = tail call i32 @H5O_msg_exists_oh(ptr noundef %0, i32 noundef 2) #3
  %17 = icmp slt i32 %16, 0
  br i1 %17, label %18, label %22

18:                                               ; preds = %15
  %19 = load i64, ptr @H5E_SYM_g, align 8, !tbaa !10
  %20 = load i64, ptr @H5E_NOTFOUND_g, align 8, !tbaa !10
  %21 = tail call i32 (ptr, ptr, i32, i64, i64, ptr, ...) @H5E_printf_stack(ptr noundef nonnull @.str.2, ptr noundef nonnull @__func__.H5O__group_isa, i32 noundef 167, i64 noundef %19, i64 noundef %20, ptr noundef nonnull @.str.4) #3
  br label %26

22:                                               ; preds = %15
  %23 = or i32 %16, %9
  %24 = icmp ne i32 %23, 0
  %25 = zext i1 %24 to i32
  br label %26

26:                                               ; preds = %11, %18, %22, %1
  %.0 = phi i32 [ -1, %11 ], [ -1, %18 ], [ %25, %22 ], [ -1, %1 ]
  ret i32 %.0
}